target datalayout = "e-m:e-p270:32:32-p271:32:32-p272:64:64-i64:64-i128:128-f80:128-n8:16:32:64-S128"
target triple = "x86_64-pc-linux-gnu"

@.str.15 = private unnamed_addr constant [3 x i8] c"pi\00", align 1
@.str.16 = private unnamed_addr constant [3 x i8] c"po\00", align 1
@.str.17 = private unnamed_addr constant [3 x i8] c"ci\00", align 1
@.str.18 = private unnamed_addr constant [3 x i8] c"co\00", align 1
@.str.19 = private unnamed_addr constant [4 x i8] c"fon\00", align 1
@.str.20 = private unnamed_addr constant [4 x i8] c"box\00", align 1
@.str.21 = private unnamed_addr constant [4 x i8] c"buf\00", align 1
@.str.22 = private unnamed_addr constant [2 x i8] c"~\00", align 1
@.str.23 = private unnamed_addr constant [4 x i8] c"mux\00", align 1
@.str.24 = private unnamed_addr constant [4 x i8] c"maj\00", align 1
@.str.25 = private unnamed_addr constant [2 x i8] c"&\00", align 1
@.str.26 = private unnamed_addr constant [2 x i8] c"|\00", align 1
@.str.27 = private unnamed_addr constant [2 x i8] c"^\00", align 1
@.str.28 = private unnamed_addr constant [3 x i8] c"~&\00", align 1
@.str.29 = private unnamed_addr constant [3 x i8] c"~|\00", align 1
@.str.30 = private unnamed_addr constant [3 x i8] c"~^\00", align 1
@.str.31 = private unnamed_addr constant [2 x i8] c"!\00", align 1
@.str.32 = private unnamed_addr constant [3 x i8] c"=>\00", align 1
@.str.33 = private unnamed_addr constant [3 x i8] c"&&\00", align 1
@.str.34 = private unnamed_addr constant [3 x i8] c"||\00", align 1
@.str.35 = private unnamed_addr constant [3 x i8] c"^^\00", align 1
@.str.36 = private unnamed_addr constant [2 x i8] c"+\00", align 1
@.str.37 = private unnamed_addr constant [2 x i8] c"-\00", align 1
@.str.38 = private unnamed_addr constant [2 x i8] c"*\00", align 1
@.str.39 = private unnamed_addr constant [2 x i8] c"/\00", align 1
@.str.40 = private unnamed_addr constant [2 x i8] c"%\00", align 1
@.str.41 = private unnamed_addr constant [4 x i8] c"mod\00", align 1
@.str.42 = private unnamed_addr constant [3 x i8] c"**\00", align 1
@.str.43 = private unnamed_addr constant [5 x i8] c"sqrt\00", align 1
@.str.44 = private unnamed_addr constant [6 x i8] c"squar\00", align 1
@.str.45 = private unnamed_addr constant [3 x i8] c"==\00", align 1
@.str.46 = private unnamed_addr constant [3 x i8] c"!=\00", align 1
@.str.47 = private unnamed_addr constant [2 x i8] c"<\00", align 1
@.str.48 = private unnamed_addr constant [2 x i8] c">\00", align 1
@.str.49 = private unnamed_addr constant [3 x i8] c"<=\00", align 1
@.str.50 = private unnamed_addr constant [3 x i8] c">=\00", align 1
@.str.51 = private unnamed_addr constant [3 x i8] c"<<\00", align 1
@.str.52 = private unnamed_addr constant [3 x i8] c">>\00", align 1
@.str.53 = private unnamed_addr constant [4 x i8] c"<<<\00", align 1
@.str.54 = private unnamed_addr constant [4 x i8] c">>>\00", align 1
@.str.55 = private unnamed_addr constant [5 x i8] c"rotL\00", align 1
@.str.56 = private unnamed_addr constant [5 x i8] c"rotR\00", align 1
@.str.57 = private unnamed_addr constant [7 x i8] c"DFFRSE\00", align 1
@.str.58 = private unnamed_addr constant [4 x i8] c"[:]\00", align 1
@.str.59 = private unnamed_addr constant [3 x i8] c"{}\00", align 1
@.str.60 = private unnamed_addr constant [5 x i8] c"zPad\00", align 1
@.str.61 = private unnamed_addr constant [5 x i8] c"sExt\00", align 1
@.str.62 = private unnamed_addr constant [5 x i8] c"nmux\00", align 1
@.str.63 = private unnamed_addr constant [5 x i8] c"pmux\00", align 1
@.str.64 = private unnamed_addr constant [6 x i8] c"const\00", align 1
@.str.65 = private unnamed_addr constant [6 x i8] c"table\00", align 1
@.str.66 = private unnamed_addr constant [4 x i8] c"lut\00", align 1

; Function Attrs: inlinehint nounwind uwtable
define internal ptr @Abc_OperName(i32 noundef %0) #4 {
  %2 = alloca ptr, align 8
  %3 = alloca i32, align 4
  store i32 %0, ptr %3, align 4, !tbaa !8
  %4 = load i32, ptr %3, align 4, !tbaa !8
  %5 = icmp eq i32 %4, 0
  br i1 %5, label %6, label %7

6:                                                ; preds = %1
  store ptr null, ptr %2, align 8
  br label %256

7:                                                ; preds = %1
  %8 = load i32, ptr %3, align 4, !tbaa !8
  %9 = icmp eq i32 %8, 1
  br i1 %9, label %10, label %11

10:                                               ; preds = %7
  store ptr @.str.15, ptr %2, align 8
  br label %256

11:                                               ; preds = %7
  %12 = load i32, ptr %3, align 4, !tbaa !8
  %13 = icmp eq i32 %12, 2
  br i1 %13, label %14, label %15

14:                                               ; preds = %11
  store ptr @.str.16, ptr %2, align 8
  br label %256

15:                                               ; preds = %11
  %16 = load i32, ptr %3, align 4, !tbaa !8
  %17 = icmp eq i32 %16, 3
  br i1 %17, label %18, label %19

18:                                               ; preds = %15
  store ptr @.str.17, ptr %2, align 8
  br label %256

19:                                               ; preds = %15
  %20 = load i32, ptr %3, align 4, !tbaa !8
  %21 = icmp eq i32 %20, 4
  br i1 %21, label %22, label %23

22:                                               ; preds = %19
  store ptr @.str.18, ptr %2, align 8
  br label %256

23:                                               ; preds = %19
  %24 = load i32, ptr %3, align 4, !tbaa !8
  %25 = icmp eq i32 %24, 5
  br i1 %25, label %26, label %27

26:                                               ; preds = %23
  store ptr @.str.19, ptr %2, align 8
  br label %256

27:                                               ; preds = %23
  %28 = load i32, ptr %3, align 4, !tbaa !8
  %29 = icmp eq i32 %28, 6
  br i1 %29, label %30, label %31

30:                                               ; preds = %27
  store ptr @.str.20, ptr %2, align 8
  br label %256

31:                                               ; preds = %27
  %32 = load i32, ptr %3, align 4, !tbaa !8
  %33 = icmp eq i32 %32, 11
  br i1 %33, label %34, label %35

34:                                               ; preds = %31
  store ptr @.str.21, ptr %2, align 8
  br label %256

35:                                               ; preds = %31
  %36 = load i32, ptr %3, align 4, !tbaa !8
  %37 = icmp eq i32 %36, 12
  br i1 %37, label %38, label %39

38:                                               ; preds = %35
  store ptr @.str.22, ptr %2, align 8
  br label %256

39:                                               ; preds = %35
  %40 = load i32, ptr %3, align 4, !tbaa !8
  %41 = icmp eq i32 %40, 21
  br i1 %41, label %42, label %43

42:                                               ; preds = %39
  store ptr @.str.23, ptr %2, align 8
  br label %256

43:                                               ; preds = %39
  %44 = load i32, ptr %3, align 4, !tbaa !8
  %45 = icmp eq i32 %44, 22
  br i1 %45, label %46, label %47

46:                                               ; preds = %43
  store ptr @.str.24, ptr %2, align 8
  br label %256

47:                                               ; preds = %43
  %48 = load i32, ptr %3, align 4, !tbaa !8
  %49 = icmp eq i32 %48, 13
  br i1 %49, label %50, label %51

50:                                               ; preds = %47
  store ptr @.str.25, ptr %2, align 8
  br label %256

51:                                               ; preds = %47
  %52 = load i32, ptr %3, align 4, !tbaa !8
  %53 = icmp eq i32 %52, 15
  br i1 %53, label %54, label %55

54:                                               ; preds = %51
  store ptr @.str.26, ptr %2, align 8
  br label %256

55:                                               ; preds = %51
  %56 = load i32, ptr %3, align 4, !tbaa !8
  %57 = icmp eq i32 %56, 17
  br i1 %57, label %58, label %59

58:                                               ; preds = %55
  store ptr @.str.27, ptr %2, align 8
  br label %256

59:                                               ; preds = %55
  %60 = load i32, ptr %3, align 4, !tbaa !8
  %61 = icmp eq i32 %60, 14
  br i1 %61, label %62, label %63

62:                                               ; preds = %59
  store ptr @.str.28, ptr %2, align 8
  br label %256

63:                                               ; preds = %59
  %64 = load i32, ptr %3, align 4, !tbaa !8
  %65 = icmp eq i32 %64, 16
  br i1 %65, label %66, label %67

66:                                               ; preds = %63
  store ptr @.str.29, ptr %2, align 8
  br label %256

67:                                               ; preds = %63
  %68 = load i32, ptr %3, align 4, !tbaa !8
  %69 = icmp eq i32 %68, 18
  br i1 %69, label %70, label %71

70:                                               ; preds = %67
  store ptr @.str.30, ptr %2, align 8
  br label %256

71:                                               ; preds = %67
  %72 = load i32, ptr %3, align 4, !tbaa !8
  %73 = icmp eq i32 %72, 30
  br i1 %73, label %74, label %75

74:                                               ; preds = %71
  store ptr @.str.25, ptr %2, align 8
  br label %256

75:                                               ; preds = %71
  %76 = load i32, ptr %3, align 4, !tbaa !8
  %77 = icmp eq i32 %76, 32
  br i1 %77, label %78, label %79

78:                                               ; preds = %75
  store ptr @.str.26, ptr %2, align 8
  br label %256

79:                                               ; preds = %75
  %80 = load i32, ptr %3, align 4, !tbaa !8
  %81 = icmp eq i32 %80, 34
  br i1 %81, label %82, label %83

82:                                               ; preds = %79
  store ptr @.str.27, ptr %2, align 8
  br label %256

83:                                               ; preds = %79
  %84 = load i32, ptr %3, align 4, !tbaa !8
  %85 = icmp eq i32 %84, 31
  br i1 %85, label %86, label %87

86:                                               ; preds = %83
  store ptr @.str.28, ptr %2, align 8
  br label %256

87:                                               ; preds = %83
  %88 = load i32, ptr %3, align 4, !tbaa !8
  %89 = icmp eq i32 %88, 33
  br i1 %89, label %90, label %91

90:                                               ; preds = %87
  store ptr @.str.29, ptr %2, align 8
  br label %256

91:                                               ; preds = %87
  %92 = load i32, ptr %3, align 4, !tbaa !8
  %93 = icmp eq i32 %92, 35
  br i1 %93, label %94, label %95

94:                                               ; preds = %91
  store ptr @.str.30, ptr %2, align 8
  br label %256

95:                                               ; preds = %91
  %96 = load i32, ptr %3, align 4, !tbaa !8
  %97 = icmp eq i32 %96, 36
  br i1 %97, label %98, label %99

98:                                               ; preds = %95
  store ptr @.str.31, ptr %2, align 8
  br label %256

99:                                               ; preds = %95
  %100 = load i32, ptr %3, align 4, !tbaa !8
  %101 = icmp eq i32 %100, 95
  br i1 %101, label %102, label %103

102:                                              ; preds = %99
  store ptr @.str.32, ptr %2, align 8
  br label %256

103:                                              ; preds = %99
  %104 = load i32, ptr %3, align 4, !tbaa !8
  %105 = icmp eq i32 %104, 37
  br i1 %105, label %106, label %107

106:                                              ; preds = %103
  store ptr @.str.33, ptr %2, align 8
  br label %256

107:                                              ; preds = %103
  %108 = load i32, ptr %3, align 4, !tbaa !8
  %109 = icmp eq i32 %108, 39
  br i1 %109, label %110, label %111

110:                                              ; preds = %107
  store ptr @.str.34, ptr %2, align 8
  br label %256

111:                                              ; preds = %107
  %112 = load i32, ptr %3, align 4, !tbaa !8
  %113 = icmp eq i32 %112, 41
  br i1 %113, label %114, label %115

114:                                              ; preds = %111
  store ptr @.str.35, ptr %2, align 8
  br label %256

115:                                              ; preds = %111
  %116 = load i32, ptr %3, align 4, !tbaa !8
  %117 = icmp eq i32 %116, 50
  br i1 %117, label %118, label %119

118:                                              ; preds = %115
  store ptr @.str.36, ptr %2, align 8
  br label %256

119:                                              ; preds = %115
  %120 = load i32, ptr %3, align 4, !tbaa !8
  %121 = icmp eq i32 %120, 51
  br i1 %121, label %122, label %123

122:                                              ; preds = %119
  store ptr @.str.37, ptr %2, align 8
  br label %256

123:                                              ; preds = %119
  %124 = load i32, ptr %3, align 4, !tbaa !8
  %125 = icmp eq i32 %124, 52
  br i1 %125, label %126, label %127

126:                                              ; preds = %123
  store ptr @.str.38, ptr %2, align 8
  br label %256

127:                                              ; preds = %123
  %128 = load i32, ptr %3, align 4, !tbaa !8
  %129 = icmp eq i32 %128, 53
  br i1 %129, label %130, label %131

130:                                              ; preds = %127
  store ptr @.str.38, ptr %2, align 8
  br label %256

131:                                              ; preds = %127
  %132 = load i32, ptr %3, align 4, !tbaa !8
  %133 = icmp eq i32 %132, 54
  br i1 %133, label %134, label %135

134:                                              ; preds = %131
  store ptr @.str.39, ptr %2, align 8
  br label %256

135:                                              ; preds = %131
  %136 = load i32, ptr %3, align 4, !tbaa !8
  %137 = icmp eq i32 %136, 56
  br i1 %137, label %138, label %139

138:                                              ; preds = %135
  store ptr @.str.40, ptr %2, align 8
  br label %256

139:                                              ; preds = %135
  %140 = load i32, ptr %3, align 4, !tbaa !8
  %141 = icmp eq i32 %140, 55
  br i1 %141, label %142, label %143

142:                                              ; preds = %139
  store ptr @.str.41, ptr %2, align 8
  br label %256

143:                                              ; preds = %139
  %144 = load i32, ptr %3, align 4, !tbaa !8
  %145 = icmp eq i32 %144, 57
  br i1 %145, label %146, label %147

146:                                              ; preds = %143
  store ptr @.str.42, ptr %2, align 8
  br label %256

147:                                              ; preds = %143
  %148 = load i32, ptr %3, align 4, !tbaa !8
  %149 = icmp eq i32 %148, 58
  br i1 %149, label %150, label %151

150:                                              ; preds = %147
  store ptr @.str.37, ptr %2, align 8
  br label %256

151:                                              ; preds = %147
  %152 = load i32, ptr %3, align 4, !tbaa !8
  %153 = icmp eq i32 %152, 59
  br i1 %153, label %154, label %155

154:                                              ; preds = %151
  store ptr @.str.43, ptr %2, align 8
  br label %256

155:                                              ; preds = %151
  %156 = load i32, ptr %3, align 4, !tbaa !8
  %157 = icmp eq i32 %156, 96
  br i1 %157, label %158, label %159

158:                                              ; preds = %155
  store ptr @.str.44, ptr %2, align 8
  br label %256

159:                                              ; preds = %155
  %160 = load i32, ptr %3, align 4, !tbaa !8
  %161 = icmp eq i32 %160, 66
  br i1 %161, label %162, label %163

162:                                              ; preds = %159
  store ptr @.str.45, ptr %2, align 8
  br label %256

163:                                              ; preds = %159
  %164 = load i32, ptr %3, align 4, !tbaa !8
  %165 = icmp eq i32 %164, 67
  br i1 %165, label %166, label %167

166:                                              ; preds = %163
  store ptr @.str.46, ptr %2, align 8
  br label %256

167:                                              ; preds = %163
  %168 = load i32, ptr %3, align 4, !tbaa !8
  %169 = icmp eq i32 %168, 62
  br i1 %169, label %170, label %171

170:                                              ; preds = %167
  store ptr @.str.47, ptr %2, align 8
  br label %256

171:                                              ; preds = %167
  %172 = load i32, ptr %3, align 4, !tbaa !8
  %173 = icmp eq i32 %172, 65
  br i1 %173, label %174, label %175

174:                                              ; preds = %171
  store ptr @.str.48, ptr %2, align 8
  br label %256

175:                                              ; preds = %171
  %176 = load i32, ptr %3, align 4, !tbaa !8
  %177 = icmp eq i32 %176, 63
  br i1 %177, label %178, label %179

178:                                              ; preds = %175
  store ptr @.str.49, ptr %2, align 8
  br label %256

179:                                              ; preds = %175
  %180 = load i32, ptr %3, align 4, !tbaa !8
  %181 = icmp eq i32 %180, 64
  br i1 %181, label %182, label %183

182:                                              ; preds = %179
  store ptr @.str.50, ptr %2, align 8
  br label %256

183:                                              ; preds = %179
  %184 = load i32, ptr %3, align 4, !tbaa !8
  %185 = icmp eq i32 %184, 68
  br i1 %185, label %186, label %187

186:                                              ; preds = %183
  store ptr @.str.51, ptr %2, align 8
  br label %256

187:                                              ; preds = %183
  %188 = load i32, ptr %3, align 4, !tbaa !8
  %189 = icmp eq i32 %188, 69
  br i1 %189, label %190, label %191

190:                                              ; preds = %187
  store ptr @.str.52, ptr %2, align 8
  br label %256

191:                                              ; preds = %187
  %192 = load i32, ptr %3, align 4, !tbaa !8
  %193 = icmp eq i32 %192, 70
  br i1 %193, label %194, label %195

194:                                              ; preds = %191
  store ptr @.str.53, ptr %2, align 8
  br label %256

195:                                              ; preds = %191
  %196 = load i32, ptr %3, align 4, !tbaa !8
  %197 = icmp eq i32 %196, 71
  br i1 %197, label %198, label %199

198:                                              ; preds = %195
  store ptr @.str.54, ptr %2, align 8
  br label %256

199:                                              ; preds = %195
  %200 = load i32, ptr %3, align 4, !tbaa !8
  %201 = icmp eq i32 %200, 72
  br i1 %201, label %202, label %203

202:                                              ; preds = %199
  store ptr @.str.55, ptr %2, align 8
  br label %256

203:                                              ; preds = %199
  %204 = load i32, ptr %3, align 4, !tbaa !8
  %205 = icmp eq i32 %204, 73
  br i1 %205, label %206, label %207

206:                                              ; preds = %203
  store ptr @.str.56, ptr %2, align 8
  br label %256

207:                                              ; preds = %203
  %208 = load i32, ptr %3, align 4, !tbaa !8
  %209 = icmp eq i32 %208, 89
  br i1 %209, label %210, label %211

210:                                              ; preds = %207
  store ptr @.str.57, ptr %2, align 8
  br label %256

211:                                              ; preds = %207
  %212 = load i32, ptr %3, align 4, !tbaa !8
  %213 = icmp eq i32 %212, 91
  br i1 %213, label %214, label %215

214:                                              ; preds = %211
  store ptr @.str.58, ptr %2, align 8
  br label %256

215:                                              ; preds = %211
  %216 = load i32, ptr %3, align 4, !tbaa !8
  %217 = icmp eq i32 %216, 92
  br i1 %217, label %218, label %219

218:                                              ; preds = %215
  store ptr @.str.59, ptr %2, align 8
  br label %256

219:                                              ; preds = %215
  %220 = load i32, ptr %3, align 4, !tbaa !8
  %221 = icmp eq i32 %220, 93
  br i1 %221, label %222, label %223

222:                                              ; preds = %219
  store ptr @.str.60, ptr %2, align 8
  br label %256

223:                                              ; preds = %219
  %224 = load i32, ptr %3, align 4, !tbaa !8
  %225 = icmp eq i32 %224, 94
  br i1 %225, label %226, label %227

226:                                              ; preds = %223
  store ptr @.str.61, ptr %2, align 8
  br label %256

227:                                              ; preds = %223
  %228 = load i32, ptr %3, align 4, !tbaa !8
  %229 = icmp eq i32 %228, 21
  br i1 %229, label %230, label %231

230:                                              ; preds = %227
  store ptr @.str.23, ptr %2, align 8
  br label %256

231:                                              ; preds = %227
  %232 = load i32, ptr %3, align 4, !tbaa !8
  %233 = icmp eq i32 %232, 43
  br i1 %233, label %234, label %235

234:                                              ; preds = %231
  store ptr @.str.62, ptr %2, align 8
  br label %256

235:                                              ; preds = %231
  %236 = load i32, ptr %3, align 4, !tbaa !8
  %237 = icmp eq i32 %236, 44
  br i1 %237, label %238, label %239

238:                                              ; preds = %235
  store ptr @.str.63, ptr %2, align 8
  br label %256

239:                                              ; preds = %235
  %240 = load i32, ptr %3, align 4, !tbaa !8
  %241 = icmp eq i32 %240, 97
  br i1 %241, label %242, label %243

242:                                              ; preds = %239
  store ptr @.str.64, ptr %2, align 8
  br label %256

243:                                              ; preds = %239
  %244 = load i32, ptr %3, align 4, !tbaa !8
  %245 = icmp eq i32 %244, 77
  br i1 %245, label %246, label %247

246:                                              ; preds = %243
  store ptr @.str.65, ptr %2, align 8
  br label %256

247:                                              ; preds = %243
  %248 = load i32, ptr %3, align 4, !tbaa !8
  %249 = icmp eq i32 %248, 75
  br i1 %249, label %250, label %251

250:                                              ; preds = %247
  store ptr @.str.66, ptr %2, align 8
  br label %256

251:                                              ; preds = %247
  %252 = load i32, ptr %3, align 4, !tbaa !8
  %253 = icmp eq i32 %252, 99
  br i1 %253, label %254, label %255

254:                                              ; preds = %251
  store ptr null, ptr %2, align 8
  br label %256

255:                                              ; preds = %251
  store ptr null, ptr %2, align 8
  br label %256

256:                                              ; preds = %255, %254, %250, %246, %242, %238, %234, %230, %226, %222, %218, %214, %210, %206, %202, %198, %194, %190, %186, %182, %178, %174, %170, %166, %162, %158, %154, %150, %146, %142, %138, %134, %130, %126, %122, %118, %114, %110, %106, %102, %98, %94, %90, %86, %82, %78, %74, %70, %66, %62, %58, %54, %50, %46, %42, %38, %34, %30, %26, %22, %18, %14, %10, %6
  %257 = load ptr, ptr %2, align 8
  ret ptr %257
}